target datalayout = "e-m:e-p270:32:32-p271:32:32-p272:64:64-i64:64-i128:128-f80:128-n8:16:32:64-S128"
target triple = "x86_64-pc-linux-gnu"

%"struct.Luau::Compile::Constant" = type { i32, i32, %union.anon }
%union.anon = type { double, [8 x i8] }
%"struct.Luau::AstName" = type { ptr }

@.str.57 = private unnamed_addr constant [3 x i8] c"pi\00", align 1
@.str.58 = private unnamed_addr constant [5 x i8] c"huge\00", align 1

; Function Attrs: inlinehint mustprogress nounwind uwtable
define linkonce_odr dso_local void @_ZN4Luau7Compile8ConstantC2Ev(ptr noundef nonnull align 8 dereferenceable(24) %0) unnamed_addr #8 comdat align 2 {
  %2 = alloca ptr, align 8
  store ptr %0, ptr %2, align 8, !tbaa !22
  %3 = load ptr, ptr %2, align 8
  %4 = getelementptr inbounds nuw %"struct.Luau::Compile::Constant", ptr %3, i32 0, i32 0
  store i32 0, ptr %4, align 8, !tbaa !26
  %5 = getelementptr inbounds nuw %"struct.Luau::Compile::Constant", ptr %3, i32 0, i32 1
  store i32 0, ptr %5, align 4, !tbaa !39
  %6 = getelementptr inbounds nuw %"struct.Luau::Compile::Constant", ptr %3, i32 0, i32 2
  store ptr null, ptr %6, align 8, !tbaa !29
  ret void
}

; Function Attrs: mustprogress nounwind uwtable
define internal void @_ZN4Luau7CompileL4cvarEv(ptr dead_on_unwind noalias writable sret(%"struct.Luau::Compile::Constant") align 8 %0) #2 {
  call void @llvm.memset.p0.i64(ptr align 8 %0, i8 0, i64 24, i1 false)
  call void @_ZN4Luau7Compile8ConstantC2Ev(ptr noundef nonnull align 8 dereferenceable(24) %0) #10
  ret void
}

; Function Attrs: mustprogress nounwind uwtable
define internal void @_ZN4Luau7CompileL4cnumEd(ptr dead_on_unwind noalias writable sret(%"struct.Luau::Compile::Constant") align 8 %0, double noundef %1) #2 {
  %3 = alloca double, align 8
  store double %1, ptr %3, align 8, !tbaa !30
  %4 = getelementptr inbounds nuw %"struct.Luau::Compile::Constant", ptr %0, i32 0, i32 0
  store i32 3, ptr %4, align 8, !tbaa !26
  %5 = getelementptr inbounds nuw %"struct.Luau::Compile::Constant", ptr %0, i32 0, i32 1
  store i32 0, ptr %5, align 4, !tbaa !39
  %6 = getelementptr inbounds nuw %"struct.Luau::Compile::Constant", ptr %0, i32 0, i32 2
  store ptr null, ptr %6, align 8, !tbaa !29
  %7 = load double, ptr %3, align 8, !tbaa !30
  %8 = getelementptr inbounds nuw %"struct.Luau::Compile::Constant", ptr %0, i32 0, i32 2
  store double %7, ptr %8, align 8, !tbaa !29
  ret void
}

; Function Attrs: mustprogress nounwind uwtable
define linkonce_odr dso_local noundef zeroext i1 @_ZNK4Luau7AstNameeqEPKc(ptr noundef nonnull align 8 dereferenceable(8) %0, ptr noundef %1) #2 comdat align 2 {
  %3 = alloca ptr, align 8
  %4 = alloca ptr, align 8
  store ptr %0, ptr %3, align 8, !tbaa !40
  store ptr %1, ptr %4, align 8, !tbaa !11
  %5 = load ptr, ptr %3, align 8
  %6 = getelementptr inbounds nuw %"struct.Luau::AstName", ptr %5, i32 0, i32 0
  %7 = load ptr, ptr %6, align 8, !tbaa !42
  %8 = icmp ne ptr %7, null
  br i1 %8, label %9, label %15

9:                                                ; preds = %2
  %10 = getelementptr inbounds nuw %"struct.Luau::AstName", ptr %5, i32 0, i32 0
  %11 = load ptr, ptr %10, align 8, !tbaa !42
  %12 = load ptr, ptr %4, align 8, !tbaa !11
  %13 = call i32 @strcmp(ptr noundef %11, ptr noundef %12) #11
  %14 = icmp eq i32 %13, 0
  br label %15

15:                                               ; preds = %9, %2
  %16 = phi i1 [ false, %2 ], [ %14, %9 ]
  ret i1 %16
}

; Function Attrs: mustprogress uwtable
define dso_local void @_ZN4Luau7Compile15foldBuiltinMathENS_7AstNameE(ptr dead_on_unwind noalias writable sret(%"struct.Luau::Compile::Constant") align 8 %0, ptr %1) #3 {
  %3 = alloca %"struct.Luau::AstName", align 8
  %4 = getelementptr inbounds nuw %"struct.Luau::AstName", ptr %3, i32 0, i32 0
  store ptr %1, ptr %4, align 8
  %5 = call noundef zeroext i1 @_ZNK4Luau7AstNameeqEPKc(ptr noundef nonnull align 8 dereferenceable(8) %3, ptr noundef @.str.57)
  br i1 %5, label %6, label %7

6:                                                ; preds = %2
  call void @_ZN4Luau7CompileL4cnumEd(ptr dead_on_unwind writable sret(%"struct.Luau::Compile::Constant") align 8 %0, double noundef 0x400921FB54442D18)
  br label %11

7:                                                ; preds = %2
  %8 = call noundef zeroext i1 @_ZNK4Luau7AstNameeqEPKc(ptr noundef nonnull align 8 dereferenceable(8) %3, ptr noundef @.str.58)
  br i1 %8, label %9, label %10

9:                                                ; preds = %7
  call void @_ZN4Luau7CompileL4cnumEd(ptr dead_on_unwind writable sret(%"struct.Luau::Compile::Constant") align 8 %0, double noundef 0x7FF0000000000000)
  br label %11

10:                                               ; preds = %7
  call void @_ZN4Luau7CompileL4cvarEv(ptr dead_on_unwind writable sret(%"struct.Luau::Compile::Constant") align 8 %0)
  br label %11

11:                                               ; preds = %10, %9, %6
  ret void
}