; Function Attrs: mustprogress nofree nounwind willreturn memory(argmem: readwrite) uwtable
define dso_local void @_ZN4Luau7Compile15foldBuiltinMathENS_7AstNameE(ptr dead_on_unwind noalias writable writeonly sret(%"struct.Luau::Compile::Constant") align 8 captures(none) initializes((0, 16)) %0, ptr readonly %1) local_unnamed_addr #7 {
  %.not.i = icmp eq ptr %1, null
  br i1 %.not.i, label %_ZNK4Luau7AstNameeqEPKc.exit2.thread, label %sub_0

sub_0:                                            ; preds = %2
  %3 = load i8, ptr %1, align 1
  %.not = icmp eq i8 %3, 112
  br i1 %.not, label %sub_1, label %_ZNK4Luau7AstNameeqEPKc.exit2

sub_1:                                            ; preds = %sub_0
  %4 = getelementptr inbounds nuw i8, ptr %1, i64 1
  %5 = load i8, ptr %4, align 1
  %.not4 = icmp eq i8 %5, 105
  br i1 %.not4, label %_ZNK4Luau7AstNameeqEPKc.exit.tail, label %_ZNK4Luau7AstNameeqEPKc.exit2

_ZNK4Luau7AstNameeqEPKc.exit.tail:                ; preds = %sub_1
  %6 = getelementptr inbounds nuw i8, ptr %1, i64 2
  %7 = load i8, ptr %6, align 1
  %8 = icmp eq i8 %7, 0
  br i1 %8, label %9, label %_ZNK4Luau7AstNameeqEPKc.exit2

9:                                                ; preds = %_ZNK4Luau7AstNameeqEPKc.exit.tail
  store i32 3, ptr %0, align 8, !tbaa !8, !alias.scope !214
  %10 = getelementptr inbounds nuw i8, ptr %0, i64 4
  store i32 0, ptr %10, align 4, !tbaa !15, !alias.scope !214
  %11 = getelementptr inbounds nuw i8, ptr %0, i64 8
  store double 0x400921FB54442D18, ptr %11, align 8, !tbaa !11, !alias.scope !214
  br label %17

_ZNK4Luau7AstNameeqEPKc.exit2:                    ; preds = %sub_1, %sub_0, %_ZNK4Luau7AstNameeqEPKc.exit.tail
  %12 = tail call i32 @strcmp(ptr noundef nonnull dereferenceable(1) %1, ptr noundef nonnull dereferenceable(5) @.str.58) #12
  %13 = icmp eq i32 %12, 0
  br i1 %13, label %14, label %_ZNK4Luau7AstNameeqEPKc.exit2.thread

14:                                               ; preds = %_ZNK4Luau7AstNameeqEPKc.exit2
  store i32 3, ptr %0, align 8, !tbaa !8, !alias.scope !217
  %15 = getelementptr inbounds nuw i8, ptr %0, i64 4
  store i32 0, ptr %15, align 4, !tbaa !15, !alias.scope !217
  %16 = getelementptr inbounds nuw i8, ptr %0, i64 8
  store double 0x7FF0000000000000, ptr %16, align 8, !tbaa !11, !alias.scope !217
  br label %17

_ZNK4Luau7AstNameeqEPKc.exit2.thread:             ; preds = %2, %_ZNK4Luau7AstNameeqEPKc.exit2
  tail call void @llvm.memset.p0.i64(ptr noundef nonnull align 8 dereferenceable(24) %0, i8 0, i64 24, i1 false), !alias.scope !220
  br label %17

17:                                               ; preds = %_ZNK4Luau7AstNameeqEPKc.exit2.thread, %14, %9
  ret void
}